; Function Attrs: mustprogress nofree norecurse nosync nounwind willreturn memory(read, inaccessiblemem: none) uwtable
define hidden noundef zeroext i1 @_ZNK13hilbert_basis10get_is_intEj(ptr nocapture noundef nonnull readonly align 8 dereferenceable(127) %this, i32 noundef %var_index) local_unnamed_addr #8 align 2 {
entry:
  %m_ints = getelementptr inbounds i8, ptr %this, i64 112
  %add = add i32 %var_index, 1
  %0 = load ptr, ptr %m_ints, align 8
  %cmp.i.i.i = icmp eq ptr %0, null
  br i1 %cmp.i.i.i, label %_ZNK6vectorIjLb0EjE8containsERKj.exit, label %_ZNK6vectorIjLb0EjE3endEv.exit.i

_ZNK6vectorIjLb0EjE3endEv.exit.i:                 ; preds = %entry
  %arrayidx.i.i.i = getelementptr inbounds i8, ptr %0, i64 -4
  %1 = load i32, ptr %arrayidx.i.i.i, align 4
  %2 = zext i32 %1 to i64
  %add.ptr.i.i = getelementptr inbounds i32, ptr %0, i64 %2
  %cmp.not3.not.i = icmp eq i32 %1, 0
  br i1 %cmp.not3.not.i, label %_ZNK6vectorIjLb0EjE8containsERKj.exit, label %for.body.i

for.body.i:                                       ; preds = %_ZNK6vectorIjLb0EjE3endEv.exit.i, %for.body.i
  %it.04.i = phi ptr [ %incdec.ptr.i, %for.body.i ], [ %0, %_ZNK6vectorIjLb0EjE3endEv.exit.i ]
  %3 = load i32, ptr %it.04.i, align 4
  %cmp3.i = icmp eq i32 %3, %add
  %incdec.ptr.i = getelementptr inbounds i8, ptr %it.04.i, i64 4
  %cmp.not.not.i = icmp eq ptr %incdec.ptr.i, %add.ptr.i.i
  %or.cond = select i1 %cmp3.i, i1 true, i1 %cmp.not.not.i
  br i1 %or.cond, label %_ZNK6vectorIjLb0EjE8containsERKj.exit, label %for.body.i, !llvm.loop !17

_ZNK6vectorIjLb0EjE8containsERKj.exit:            ; preds = %for.body.i, %entry, %_ZNK6vectorIjLb0EjE3endEv.exit.i
  %cmp.not.lcssa.i = phi i1 [ false, %_ZNK6vectorIjLb0EjE3endEv.exit.i ], [ false, %entry ], [ %cmp3.i, %for.body.i ]
  ret i1 %cmp.not.lcssa.i
}